target datalayout = "e-m:e-p270:32:32-p271:32:32-p272:64:64-i64:64-i128:128-f80:128-n8:16:32:64-S128"
target triple = "x86_64-pc-linux-gnu"

%struct.cli_exe_section = type { i32, i32, i32, i32, i32, i32, i32, i32, i32 }
%struct.cl_fmap = type { ptr, ptr, ptr, i64, i64, i64, i64, i8, i8, i8, i64, i64, i64, i64, ptr, ptr, ptr, ptr, ptr, ptr, ptr, i8, [16 x i8], i8, [20 x i8], i8, [32 x i8], ptr, ptr }

@.str.342 = private unnamed_addr constant [4 x i8] c"md5\00", align 1
@.str.362 = private unnamed_addr constant [61 x i8] c"cli_hashsect: skipping hash calculation for too big section\0A\00", align 1
@.str.363 = private unnamed_addr constant [43 x i8] c"cli_hashsect: unable to read section data\0A\00", align 1

; Function Attrs: nounwind uwtable
define internal ptr @fmap_need_off_once(ptr noundef %0, i64 noundef %1, i64 noundef %2) #0 {
  %4 = alloca ptr, align 8
  %5 = alloca i64, align 8
  %6 = alloca i64, align 8
  store ptr %0, ptr %4, align 8
  store i64 %1, ptr %5, align 8
  store i64 %2, ptr %6, align 8
  %7 = load ptr, ptr %4, align 8
  %8 = getelementptr inbounds %struct.cl_fmap, ptr %7, i32 0, i32 15
  %9 = load ptr, ptr %8, align 8
  %10 = load ptr, ptr %4, align 8
  %11 = load i64, ptr %5, align 8
  %12 = load i64, ptr %6, align 8
  %13 = call ptr %9(ptr noundef %10, i64 noundef %11, i64 noundef %12, i32 noundef 0)
  ret ptr %13
}

; Function Attrs: nounwind uwtable
define internal i32 @cli_hashsect(ptr noundef %0, ptr noundef %1, ptr noundef %2, ptr noundef %3, ptr noundef %4) #0 {
  %6 = alloca i32, align 4
  %7 = alloca ptr, align 8
  %8 = alloca ptr, align 8
  %9 = alloca ptr, align 8
  %10 = alloca ptr, align 8
  %11 = alloca ptr, align 8
  %12 = alloca ptr, align 8
  store ptr %0, ptr %7, align 8
  store ptr %1, ptr %8, align 8
  store ptr %2, ptr %9, align 8
  store ptr %3, ptr %10, align 8
  store ptr %4, ptr %11, align 8
  %13 = load ptr, ptr %8, align 8
  %14 = getelementptr inbounds %struct.cli_exe_section, ptr %13, i32 0, i32 3
  %15 = load i32, ptr %14, align 4
  %16 = icmp ugt i32 %15, 1073741824
  br i1 %16, label %17, label %18

17:                                               ; preds = %5
  call void (ptr, ...) @cli_dbgmsg(ptr noundef @.str.362)
  store i32 0, ptr %6, align 4
  br label %98

18:                                               ; preds = %5
  %19 = load ptr, ptr %8, align 8
  %20 = getelementptr inbounds %struct.cli_exe_section, ptr %19, i32 0, i32 3
  %21 = load i32, ptr %20, align 4
  %22 = icmp ne i32 %21, 0
  br i1 %22, label %24, label %23

23:                                               ; preds = %18
  store i32 0, ptr %6, align 4
  br label %98

24:                                               ; preds = %18
  %25 = load ptr, ptr %7, align 8
  %26 = load ptr, ptr %8, align 8
  %27 = getelementptr inbounds %struct.cli_exe_section, ptr %26, i32 0, i32 2
  %28 = load i32, ptr %27, align 4
  %29 = zext i32 %28 to i64
  %30 = load ptr, ptr %8, align 8
  %31 = getelementptr inbounds %struct.cli_exe_section, ptr %30, i32 0, i32 3
  %32 = load i32, ptr %31, align 4
  %33 = zext i32 %32 to i64
  %34 = call ptr @fmap_need_off_once(ptr noundef %25, i64 noundef %29, i64 noundef %33)
  store ptr %34, ptr %12, align 8
  %35 = icmp ne ptr %34, null
  br i1 %35, label %37, label %36

36:                                               ; preds = %24
  call void (ptr, ...) @cli_dbgmsg(ptr noundef @.str.363)
  store i32 0, ptr %6, align 4
  br label %98

37:                                               ; preds = %24
  %38 = load ptr, ptr %10, align 8
  %39 = getelementptr inbounds i32, ptr %38, i64 0
  %40 = load i32, ptr %39, align 4
  %41 = icmp ne i32 %40, 0
  br i1 %41, label %47, label %42

42:                                               ; preds = %37
  %43 = load ptr, ptr %11, align 8
  %44 = getelementptr inbounds i32, ptr %43, i64 0
  %45 = load i32, ptr %44, align 4
  %46 = icmp ne i32 %45, 0
  br i1 %46, label %47, label %57

47:                                               ; preds = %42, %37
  %48 = load ptr, ptr %12, align 8
  %49 = load ptr, ptr %8, align 8
  %50 = getelementptr inbounds %struct.cli_exe_section, ptr %49, i32 0, i32 3
  %51 = load i32, ptr %50, align 4
  %52 = zext i32 %51 to i64
  %53 = load ptr, ptr %9, align 8
  %54 = getelementptr inbounds ptr, ptr %53, i64 0
  %55 = load ptr, ptr %54, align 8
  %56 = call ptr @cl_hash_data(ptr noundef @.str.342, ptr noundef %48, i64 noundef %52, ptr noundef %55, ptr noundef null)
  br label %57

57:                                               ; preds = %47, %42
  %58 = load ptr, ptr %10, align 8
  %59 = getelementptr inbounds i32, ptr %58, i64 1
  %60 = load i32, ptr %59, align 4
  %61 = icmp ne i32 %60, 0
  br i1 %61, label %67, label %62

62:                                               ; preds = %57
  %63 = load ptr, ptr %11, align 8
  %64 = getelementptr inbounds i32, ptr %63, i64 1
  %65 = load i32, ptr %64, align 4
  %66 = icmp ne i32 %65, 0
  br i1 %66, label %67, label %77

67:                                               ; preds = %62, %57
  %68 = load ptr, ptr %12, align 8
  %69 = load ptr, ptr %8, align 8
  %70 = getelementptr inbounds %struct.cli_exe_section, ptr %69, i32 0, i32 3
  %71 = load i32, ptr %70, align 4
  %72 = zext i32 %71 to i64
  %73 = load ptr, ptr %9, align 8
  %74 = getelementptr inbounds ptr, ptr %73, i64 1
  %75 = load ptr, ptr %74, align 8
  %76 = call ptr @cl_sha1(ptr noundef %68, i64 noundef %72, ptr noundef %75, ptr noundef null)
  br label %77

77:                                               ; preds = %67, %62
  %78 = load ptr, ptr %10, align 8
  %79 = getelementptr inbounds i32, ptr %78, i64 2
  %80 = load i32, ptr %79, align 4
  %81 = icmp ne i32 %80, 0
  br i1 %81, label %87, label %82

82:                                               ; preds = %77
  %83 = load ptr, ptr %11, align 8
  %84 = getelementptr inbounds i32, ptr %83, i64 2
  %85 = load i32, ptr %84, align 4
  %86 = icmp ne i32 %85, 0
  br i1 %86, label %87, label %97

87:                                               ; preds = %82, %77
  %88 = load ptr, ptr %12, align 8
  %89 = load ptr, ptr %8, align 8
  %90 = getelementptr inbounds %struct.cli_exe_section, ptr %89, i32 0, i32 3
  %91 = load i32, ptr %90, align 4
  %92 = zext i32 %91 to i64
  %93 = load ptr, ptr %9, align 8
  %94 = getelementptr inbounds ptr, ptr %93, i64 2
  %95 = load ptr, ptr %94, align 8
  %96 = call ptr @cl_sha256(ptr noundef %88, i64 noundef %92, ptr noundef %95, ptr noundef null)
  br label %97

97:                                               ; preds = %87, %82
  store i32 1, ptr %6, align 4
  br label %98

98:                                               ; preds = %97, %36, %23, %17
  %99 = load i32, ptr %6, align 4
  ret i32 %99
}