; Function Attrs: nounwind uwtable
define internal fastcc noundef i32 @cli_hashsect(ptr noundef %0, ptr nocapture noundef readonly %1, ptr nocapture noundef readonly %2, ptr nocapture noundef readonly %3, ptr nocapture noundef readonly %4) unnamed_addr #1 {
  %6 = getelementptr inbounds i8, ptr %1, i64 12
  %7 = load i32, ptr %6, align 4
  %8 = icmp ugt i32 %7, 1073741824
  br i1 %8, label %9, label %10

9:                                                ; preds = %5
  tail call void (ptr, ...) @cli_dbgmsg(ptr noundef nonnull @.str.362) #20
  br label %53

10:                                               ; preds = %5
  %.not = icmp eq i32 %7, 0
  br i1 %.not, label %53, label %11

11:                                               ; preds = %10
  %12 = getelementptr inbounds i8, ptr %1, i64 8
  %13 = load i32, ptr %12, align 4
  %14 = zext i32 %13 to i64
  %15 = zext nneg i32 %7 to i64
  %16 = getelementptr inbounds i8, ptr %0, i64 104
  %17 = load ptr, ptr %16, align 8
  %18 = tail call ptr %17(ptr noundef %0, i64 noundef %14, i64 noundef %15, i32 noundef 0) #20
  %.not22 = icmp eq ptr %18, null
  br i1 %.not22, label %19, label %20

19:                                               ; preds = %11
  tail call void (ptr, ...) @cli_dbgmsg(ptr noundef nonnull @.str.363) #20
  br label %53

20:                                               ; preds = %11
  %21 = load i32, ptr %3, align 4
  %.not23 = icmp eq i32 %21, 0
  br i1 %.not23, label %22, label %24

22:                                               ; preds = %20
  %23 = load i32, ptr %4, align 4
  %.not24 = icmp eq i32 %23, 0
  br i1 %.not24, label %29, label %24

24:                                               ; preds = %22, %20
  %25 = load i32, ptr %6, align 4
  %26 = zext i32 %25 to i64
  %27 = load ptr, ptr %2, align 8
  %28 = tail call ptr @cl_hash_data(ptr noundef nonnull @.str.342, ptr noundef nonnull %18, i64 noundef %26, ptr noundef %27, ptr noundef null) #20
  br label %29

29:                                               ; preds = %24, %22
  %30 = getelementptr inbounds i8, ptr %3, i64 4
  %31 = load i32, ptr %30, align 4
  %.not25 = icmp eq i32 %31, 0
  br i1 %.not25, label %32, label %35

32:                                               ; preds = %29
  %33 = getelementptr inbounds i8, ptr %4, i64 4
  %34 = load i32, ptr %33, align 4
  %.not26 = icmp eq i32 %34, 0
  br i1 %.not26, label %41, label %35

35:                                               ; preds = %32, %29
  %36 = load i32, ptr %6, align 4
  %37 = zext i32 %36 to i64
  %38 = getelementptr inbounds i8, ptr %2, i64 8
  %39 = load ptr, ptr %38, align 8
  %40 = tail call ptr @cl_sha1(ptr noundef nonnull %18, i64 noundef %37, ptr noundef %39, ptr noundef null) #20
  br label %41

41:                                               ; preds = %35, %32
  %42 = getelementptr inbounds i8, ptr %3, i64 8
  %43 = load i32, ptr %42, align 4
  %.not27 = icmp eq i32 %43, 0
  br i1 %.not27, label %44, label %47

44:                                               ; preds = %41
  %45 = getelementptr inbounds i8, ptr %4, i64 8
  %46 = load i32, ptr %45, align 4
  %.not28 = icmp eq i32 %46, 0
  br i1 %.not28, label %53, label %47

47:                                               ; preds = %44, %41
  %48 = load i32, ptr %6, align 4
  %49 = zext i32 %48 to i64
  %50 = getelementptr inbounds i8, ptr %2, i64 16
  %51 = load ptr, ptr %50, align 8
  %52 = tail call ptr @cl_sha256(ptr noundef nonnull %18, i64 noundef %49, ptr noundef %51, ptr noundef null) #20
  br label %53

53:                                               ; preds = %44, %47, %10, %19, %9
  %.0 = phi i32 [ 0, %9 ], [ 0, %19 ], [ 0, %10 ], [ 1, %47 ], [ 1, %44 ]
  ret i32 %.0
}